; Function Attrs: mustprogress nounwind uwtable
define dso_local void @_ZN4llvm9symbolize16PlainPrinterBase5printERKNS0_7RequestERKSt6vectorINS_10DILineInfoESaIS6_EE(ptr noundef nonnull align 8 dereferenceable(40) %0, ptr noundef nonnull align 8 dereferenceable(48) %1, ptr nocapture noundef nonnull readonly align 8 dereferenceable(24) %2) unnamed_addr #0 align 2 {
  %4 = alloca %"struct.llvm::DILineInfo", align 8
  %5 = load ptr, ptr %2, align 8
  %6 = getelementptr inbounds nuw i8, ptr %2, i64 8
  %7 = load ptr, ptr %6, align 8
  %8 = icmp eq ptr %5, %7
  br i1 %8, label %9, label %.preheader

9:                                                ; preds = %3
  call void @_ZN4llvm10DILineInfoC2Ev(ptr noundef nonnull align 8 dereferenceable(181) %4)
  %10 = load ptr, ptr %0, align 8
  %11 = getelementptr inbounds i8, ptr %10, i64 16
  %12 = load ptr, ptr %11, align 8
  call void %12(ptr noundef nonnull align 8 dereferenceable(40) %0, ptr noundef nonnull align 8 dereferenceable(48) %1, ptr noundef nonnull align 8 dereferenceable(181) %4) #17
  %13 = getelementptr inbounds nuw i8, ptr %4, i64 64
  call void @_ZNSt7__cxx1112basic_stringIcSt11char_traitsIcESaIcEED1Ev(ptr noundef nonnull align 8 dereferenceable(32) %13) #17
  %14 = getelementptr inbounds nuw i8, ptr %4, i64 32
  call void @_ZNSt7__cxx1112basic_stringIcSt11char_traitsIcESaIcEED1Ev(ptr noundef nonnull align 8 dereferenceable(32) %14) #17
  call void @_ZNSt7__cxx1112basic_stringIcSt11char_traitsIcESaIcEED1Ev(ptr noundef nonnull align 8 dereferenceable(32) %4) #17
  br label %20

.preheader:                                       ; preds = %3, %.preheader
  %.sroa.07.010 = phi ptr [ %15, %.preheader ], [ %5, %3 ]
  tail call void @_ZN4llvm9symbolize16PlainPrinterBase5printERKNS_10DILineInfoEb(ptr noundef nonnull align 8 dereferenceable(40) %0, ptr noundef nonnull align 8 dereferenceable(181) %.sroa.07.010, i1 noundef zeroext false)
  %15 = getelementptr inbounds i8, ptr %.sroa.07.010, i64 184
  %.not = icmp eq ptr %15, %7
  br i1 %.not, label %16, label %.preheader

16:                                               ; preds = %.preheader
  %17 = load ptr, ptr %0, align 8
  %18 = getelementptr inbounds i8, ptr %17, i64 96
  %19 = load ptr, ptr %18, align 8
  tail call void %19(ptr noundef nonnull align 8 dereferenceable(40) %0) #17
  br label %20

20:                                               ; preds = %16, %9
  ret void
}